target datalayout = "e-m:e-p270:32:32-p271:32:32-p272:64:64-i64:64-i128:128-f80:128-n8:16:32:64-S128"
target triple = "x86_64-pc-linux-gnu"

%struct.PgStat_KindInfo = type { i8, i32, i32, i32, i32, i32, i32, ptr, ptr, ptr, ptr, ptr, ptr, ptr, ptr, ptr, ptr, ptr, ptr }
%struct.LWLock = type { i16, %struct.pg_atomic_uint32, %struct.proclist_head }
%struct.pg_atomic_uint32 = type { i32 }
%struct.proclist_head = type { i32, i32 }
%struct.PgStatShared_HashEntry = type { %struct.PgStat_HashKey, i8, %struct.pg_atomic_uint32, %struct.pg_atomic_uint32, i64 }
%struct.PgStat_HashKey = type { i32, i32, i64 }
%struct.PgStatShared_Common = type { i32, %struct.LWLock }
%struct.PgStat_EntryRef = type { ptr, ptr, i32, ptr, %struct.dlist_node }
%struct.dlist_node = type { ptr, ptr }

; Function Attrs: inlinehint nounwind uwtable
define internal i64 @pgstat_get_entry_len(i32 noundef %0) #3 {
  %2 = alloca i32, align 4
  store i32 %0, ptr %2, align 4
  %3 = load i32, ptr %2, align 4
  %4 = call ptr @pgstat_get_kind_info(i32 noundef %3)
  %5 = getelementptr inbounds nuw %struct.PgStat_KindInfo, ptr %4, i32 0, i32 5
  %6 = load i32, ptr %5, align 4
  %7 = zext i32 %6 to i64
  ret i64 %7
}

; Function Attrs: inlinehint nounwind uwtable
define internal ptr @pgstat_get_entry_data(i32 noundef %0, ptr noundef %1) #3 {
  %3 = alloca i32, align 4
  %4 = alloca ptr, align 8
  %5 = alloca i64, align 8
  store i32 %0, ptr %3, align 4
  store ptr %1, ptr %4, align 8
  call void @llvm.lifetime.start.p0(i64 8, ptr %5) #10
  %6 = load i32, ptr %3, align 4
  %7 = call ptr @pgstat_get_kind_info(i32 noundef %6)
  %8 = getelementptr inbounds nuw %struct.PgStat_KindInfo, ptr %7, i32 0, i32 4
  %9 = load i32, ptr %8, align 8
  %10 = zext i32 %9 to i64
  store i64 %10, ptr %5, align 8
  %11 = load ptr, ptr %4, align 8
  %12 = load i64, ptr %5, align 8
  %13 = getelementptr inbounds nuw i8, ptr %11, i64 %12
  call void @llvm.lifetime.end.p0(i64 8, ptr %5) #10
  ret ptr %13
}

; Function Attrs: nounwind uwtable
define dso_local void @pgstat_unlock_entry(ptr noundef %0) #0 {
  %2 = alloca ptr, align 8
  store ptr %0, ptr %2, align 8
  %3 = load ptr, ptr %2, align 8
  %4 = getelementptr inbounds nuw %struct.PgStat_EntryRef, ptr %3, i32 0, i32 1
  %5 = load ptr, ptr %4, align 8
  %6 = getelementptr inbounds nuw %struct.PgStatShared_Common, ptr %5, i32 0, i32 1
  call void @LWLockRelease(ptr noundef %6)
  ret void
}

; Function Attrs: nounwind uwtable
define internal void @shared_stat_reset_contents(i32 noundef %0, ptr noundef %1, i64 noundef %2) #0 {
  %4 = alloca i32, align 4
  %5 = alloca ptr, align 8
  %6 = alloca i64, align 8
  %7 = alloca ptr, align 8
  store i32 %0, ptr %4, align 4
  store ptr %1, ptr %5, align 8
  store i64 %2, ptr %6, align 8
  call void @llvm.lifetime.start.p0(i64 8, ptr %7) #10
  %8 = load i32, ptr %4, align 4
  %9 = call ptr @pgstat_get_kind_info(i32 noundef %8)
  store ptr %9, ptr %7, align 8
  %10 = load i32, ptr %4, align 4
  %11 = load ptr, ptr %5, align 8
  %12 = call ptr @pgstat_get_entry_data(i32 noundef %10, ptr noundef %11)
  %13 = load i32, ptr %4, align 4
  %14 = call i64 @pgstat_get_entry_len(i32 noundef %13)
  call void @llvm.memset.p0.i64(ptr align 1 %12, i8 0, i64 %14, i1 false)
  %15 = load ptr, ptr %7, align 8
  %16 = getelementptr inbounds nuw %struct.PgStat_KindInfo, ptr %15, i32 0, i32 10
  %17 = load ptr, ptr %16, align 8
  %18 = icmp ne ptr %17, null
  br i1 %18, label %19, label %25

19:                                               ; preds = %3
  %20 = load ptr, ptr %7, align 8
  %21 = getelementptr inbounds nuw %struct.PgStat_KindInfo, ptr %20, i32 0, i32 10
  %22 = load ptr, ptr %21, align 8
  %23 = load ptr, ptr %5, align 8
  %24 = load i64, ptr %6, align 8
  call void %22(ptr noundef %23, i64 noundef %24)
  br label %25

25:                                               ; preds = %19, %3
  call void @llvm.lifetime.end.p0(i64 8, ptr %7) #10
  ret void
}

; Function Attrs: nounwind uwtable
define dso_local zeroext i1 @pgstat_lock_entry(ptr noundef %0, i1 noundef zeroext %1) #0 {
  %3 = alloca i1, align 1
  %4 = alloca ptr, align 8
  %5 = alloca i8, align 1
  %6 = alloca ptr, align 8
  %7 = alloca i32, align 4
  store ptr %0, ptr %4, align 8
  %8 = zext i1 %1 to i8
  store i8 %8, ptr %5, align 1
  call void @llvm.lifetime.start.p0(i64 8, ptr %6) #10
  %9 = load ptr, ptr %4, align 8
  %10 = getelementptr inbounds nuw %struct.PgStat_EntryRef, ptr %9, i32 0, i32 1
  %11 = load ptr, ptr %10, align 8
  %12 = getelementptr inbounds nuw %struct.PgStatShared_Common, ptr %11, i32 0, i32 1
  store ptr %12, ptr %6, align 8
  %13 = load i8, ptr %5, align 1, !range !6, !noundef !7
  %14 = trunc i8 %13 to i1
  br i1 %14, label %15, label %18

15:                                               ; preds = %2
  %16 = load ptr, ptr %6, align 8
  %17 = call zeroext i1 @LWLockConditionalAcquire(ptr noundef %16, i32 noundef 0)
  store i1 %17, ptr %3, align 1
  store i32 1, ptr %7, align 4
  br label %21

18:                                               ; preds = %2
  %19 = load ptr, ptr %6, align 8
  %20 = call zeroext i1 @LWLockAcquire(ptr noundef %19, i32 noundef 0)
  store i1 true, ptr %3, align 1
  store i32 1, ptr %7, align 4
  br label %21

21:                                               ; preds = %18, %15
  call void @llvm.lifetime.end.p0(i64 8, ptr %6) #10
  %22 = load i1, ptr %3, align 1
  ret i1 %22
}

; Function Attrs: nounwind uwtable
define dso_local void @pgstat_reset_entry(i32 noundef %0, i32 noundef %1, i64 noundef %2, i64 noundef %3) #0 {
  %5 = alloca i32, align 4
  %6 = alloca i32, align 4
  %7 = alloca i64, align 8
  %8 = alloca i64, align 8
  %9 = alloca ptr, align 8
  %10 = alloca i32, align 4
  store i32 %0, ptr %5, align 4
  store i32 %1, ptr %6, align 4
  store i64 %2, ptr %7, align 8
  store i64 %3, ptr %8, align 8
  call void @llvm.lifetime.start.p0(i64 8, ptr %9) #10
  %11 = load i32, ptr %5, align 4
  %12 = load i32, ptr %6, align 4
  %13 = load i64, ptr %7, align 8
  %14 = call ptr @pgstat_get_entry_ref(i32 noundef %11, i32 noundef %12, i64 noundef %13, i1 noundef zeroext false, ptr noundef null)
  store ptr %14, ptr %9, align 8
  %15 = load ptr, ptr %9, align 8
  %16 = icmp ne ptr %15, null
  br i1 %16, label %17, label %24

17:                                               ; preds = %4
  %18 = load ptr, ptr %9, align 8
  %19 = getelementptr inbounds nuw %struct.PgStat_EntryRef, ptr %18, i32 0, i32 0
  %20 = load ptr, ptr %19, align 8
  %21 = getelementptr inbounds nuw %struct.PgStatShared_HashEntry, ptr %20, i32 0, i32 1
  %22 = load i8, ptr %21, align 8, !range !6, !noundef !7
  %23 = trunc i8 %22 to i1
  br i1 %23, label %24, label %25

24:                                               ; preds = %17, %4
  store i32 1, ptr %10, align 4
  br label %34

25:                                               ; preds = %17
  %26 = load ptr, ptr %9, align 8
  %27 = call zeroext i1 @pgstat_lock_entry(ptr noundef %26, i1 noundef zeroext false)
  %28 = load i32, ptr %5, align 4
  %29 = load ptr, ptr %9, align 8
  %30 = getelementptr inbounds nuw %struct.PgStat_EntryRef, ptr %29, i32 0, i32 1
  %31 = load ptr, ptr %30, align 8
  %32 = load i64, ptr %8, align 8
  call void @shared_stat_reset_contents(i32 noundef %28, ptr noundef %31, i64 noundef %32)
  %33 = load ptr, ptr %9, align 8
  call void @pgstat_unlock_entry(ptr noundef %33)
  store i32 0, ptr %10, align 4
  br label %34

34:                                               ; preds = %25, %24
  call void @llvm.lifetime.end.p0(i64 8, ptr %9) #10
  %35 = load i32, ptr %10, align 4
  switch i32 %35, label %37 [
    i32 0, label %36
    i32 1, label %36
  ]

36:                                               ; preds = %34, %34
  ret void

37:                                               ; preds = %34
  unreachable
}