; Function Attrs: nounwind uwtable
define dso_local void @pgstat_reset_entry(i32 noundef %0, i32 noundef %1, i64 noundef %2, i64 noundef %3) local_unnamed_addr #0 {
  %5 = tail call ptr @pgstat_get_entry_ref(i32 noundef %0, i32 noundef %1, i64 noundef %2, i1 noundef zeroext false, ptr noundef null)
  %.not = icmp eq ptr %5, null
  br i1 %.not, label %32, label %6

6:                                                ; preds = %4
  %7 = load ptr, ptr %5, align 8
  %8 = getelementptr inbounds nuw i8, ptr %7, i64 16
  %9 = load i8, ptr %8, align 8, !range !6, !noundef !7
  %10 = trunc nuw i8 %9 to i1
  br i1 %10, label %32, label %11

11:                                               ; preds = %6
  %12 = getelementptr inbounds nuw i8, ptr %5, i64 8
  %13 = load ptr, ptr %12, align 8
  %14 = getelementptr inbounds nuw i8, ptr %13, i64 4
  %15 = tail call zeroext i1 @LWLockAcquire(ptr noundef nonnull %14, i32 noundef 0) #15
  %16 = load ptr, ptr %12, align 8
  %17 = tail call ptr @pgstat_get_kind_info(i32 noundef %0) #15
  %18 = tail call ptr @pgstat_get_kind_info(i32 noundef %0) #15
  %19 = getelementptr inbounds nuw i8, ptr %18, i64 16
  %20 = load i32, ptr %19, align 8
  %21 = zext i32 %20 to i64
  %22 = getelementptr inbounds nuw i8, ptr %16, i64 %21
  %23 = tail call ptr @pgstat_get_kind_info(i32 noundef %0) #15
  %24 = getelementptr inbounds nuw i8, ptr %23, i64 20
  %25 = load i32, ptr %24, align 4
  %26 = zext i32 %25 to i64
  tail call void @llvm.memset.p0.i64(ptr align 1 %22, i8 0, i64 %26, i1 false)
  %27 = getelementptr inbounds nuw i8, ptr %17, i64 56
  %28 = load ptr, ptr %27, align 8
  %.not.i = icmp eq ptr %28, null
  br i1 %.not.i, label %shared_stat_reset_contents.exit, label %29

29:                                               ; preds = %11
  tail call void %28(ptr noundef %16, i64 noundef %3) #15
  br label %shared_stat_reset_contents.exit

shared_stat_reset_contents.exit:                  ; preds = %11, %29
  %30 = load ptr, ptr %12, align 8
  %31 = getelementptr inbounds nuw i8, ptr %30, i64 4
  tail call void @LWLockRelease(ptr noundef nonnull %31) #15
  br label %32

32:                                               ; preds = %4, %6, %shared_stat_reset_contents.exit
  ret void
}